target datalayout = "e-m:e-p270:32:32-p271:32:32-p272:64:64-i64:64-i128:128-f80:128-n8:16:32:64-S128"
target triple = "x86_64-pc-linux-gnu"

%struct.gmx_ana_selmethod_t = type { ptr, i32, i32, i32, ptr, ptr, ptr, ptr, ptr, ptr, ptr, ptr, ptr, %struct.gmx_ana_selmethod_help_t }
%struct.gmx_ana_selmethod_help_t = type { ptr, ptr, i32, ptr }
%struct.gmx_ana_selvalue_t = type { i32, i32, %union.anon, i32 }
%union.anon = type { ptr }
%struct.t_methoddata_pos = type { ptr, %struct.gmx_ana_index_t, ptr, i8, ptr, i32 }
%struct.gmx_ana_index_t = type { i32, ptr, i32 }
%"class.gmx::SelectionTreeElement" = type { i32, %struct.gmx_ana_selvalue_t, ptr, i32, %union.anon.2, ptr, ptr, %"class.std::shared_ptr", %"class.std::shared_ptr", %"class.std::__cxx11::basic_string", %"struct.gmx::SelectionLocation" }
%union.anon.2 = type { %struct.anon }
%struct.anon = type { ptr, ptr, ptr, ptr }
%"class.std::shared_ptr" = type { %"class.std::__shared_ptr" }
%"class.std::__shared_ptr" = type { ptr, %"class.std::__shared_count" }
%"class.std::__shared_count" = type { ptr }
%"class.std::__cxx11::basic_string" = type { %"struct.std::__cxx11::basic_string<char>::_Alloc_hider", i64, %union.anon.4 }
%"struct.std::__cxx11::basic_string<char>::_Alloc_hider" = type { ptr }
%union.anon.4 = type { i64, [8 x i8] }
%"struct.gmx::SelectionLocation" = type { i32, i32 }

; Function Attrs: mustprogress nounwind uwtable
define noundef zeroext i1 @_Z29_gmx_selelem_is_default_kwposRKN3gmx20SelectionTreeElementE(ptr noundef nonnull align 8 dereferenceable(168) %0) #1 {
  %2 = alloca i1, align 1
  %3 = alloca ptr, align 8
  %4 = alloca ptr, align 8
  store ptr %0, ptr %3, align 8, !tbaa !50
  %5 = load ptr, ptr %3, align 8, !tbaa !50
  %6 = getelementptr inbounds nuw %"class.gmx::SelectionTreeElement", ptr %5, i32 0, i32 0
  %7 = load i32, ptr %6, align 8, !tbaa !52
  %8 = icmp ne i32 %7, 1
  br i1 %8, label %24, label %9

9:                                                ; preds = %1
  %10 = load ptr, ptr %3, align 8, !tbaa !50
  %11 = getelementptr inbounds nuw %"class.gmx::SelectionTreeElement", ptr %10, i32 0, i32 4
  %12 = getelementptr inbounds nuw %struct.anon, ptr %11, i32 0, i32 0
  %13 = load ptr, ptr %12, align 8, !tbaa !12
  %14 = icmp ne ptr %13, null
  br i1 %14, label %15, label %24

15:                                               ; preds = %9
  %16 = load ptr, ptr %3, align 8, !tbaa !50
  %17 = getelementptr inbounds nuw %"class.gmx::SelectionTreeElement", ptr %16, i32 0, i32 4
  %18 = getelementptr inbounds nuw %struct.anon, ptr %17, i32 0, i32 0
  %19 = load ptr, ptr %18, align 8, !tbaa !12
  %20 = getelementptr inbounds nuw %struct.gmx_ana_selmethod_t, ptr %19, i32 0, i32 0
  %21 = load ptr, ptr %20, align 8, !tbaa !64
  %22 = load ptr, ptr @sm_keyword_pos, align 8, !tbaa !64
  %23 = icmp ne ptr %21, %22
  br i1 %23, label %24, label %25

24:                                               ; preds = %15, %9, %1
  store i1 false, ptr %2, align 1
  br label %34

25:                                               ; preds = %15
  call void @llvm.lifetime.start.p0(i64 8, ptr %4) #6
  %26 = load ptr, ptr %3, align 8, !tbaa !50
  %27 = getelementptr inbounds nuw %"class.gmx::SelectionTreeElement", ptr %26, i32 0, i32 4
  %28 = getelementptr inbounds nuw %struct.anon, ptr %27, i32 0, i32 1
  %29 = load ptr, ptr %28, align 8, !tbaa !12
  store ptr %29, ptr %4, align 8, !tbaa !11
  %30 = load ptr, ptr %4, align 8, !tbaa !11
  %31 = getelementptr inbounds nuw %struct.t_methoddata_pos, ptr %30, i32 0, i32 4
  %32 = load ptr, ptr %31, align 8, !tbaa !22
  %33 = icmp eq ptr %32, null
  store i1 %33, ptr %2, align 1
  call void @llvm.lifetime.end.p0(i64 8, ptr %4) #6
  br label %34

34:                                               ; preds = %25, %24
  %35 = load i1, ptr %2, align 1
  ret i1 %35
}