; Function Attrs: mustprogress nofree norecurse nosync nounwind willreturn memory(read, inaccessiblemem: none) uwtable
define noundef zeroext i1 @_Z29_gmx_selelem_is_default_kwposRKN3gmx20SelectionTreeElementE(ptr noundef nonnull readonly align 8 captures(none) dereferenceable(168) %0) local_unnamed_addr #3 {
  %2 = load i32, ptr %0, align 8, !tbaa !33
  %.not = icmp eq i32 %2, 1
  br i1 %.not, label %3, label %15

3:                                                ; preds = %1
  %4 = getelementptr inbounds nuw i8, ptr %0, i64 48
  %5 = load ptr, ptr %4, align 8, !tbaa !4
  %.not7 = icmp eq ptr %5, null
  br i1 %.not7, label %15, label %6

6:                                                ; preds = %3
  %7 = load ptr, ptr %5, align 8, !tbaa !47
  %8 = load ptr, ptr @sm_keyword_pos, align 8, !tbaa !47
  %.not8 = icmp eq ptr %7, %8
  br i1 %.not8, label %9, label %15

9:                                                ; preds = %6
  %10 = getelementptr inbounds nuw i8, ptr %0, i64 56
  %11 = load ptr, ptr %10, align 8, !tbaa !4
  %12 = getelementptr inbounds nuw i8, ptr %11, i64 48
  %13 = load ptr, ptr %12, align 8, !tbaa !18
  %14 = icmp eq ptr %13, null
  br label %15

15:                                               ; preds = %1, %3, %6, %9
  %.0 = phi i1 [ %14, %9 ], [ false, %6 ], [ false, %3 ], [ false, %1 ]
  ret i1 %.0
}